target datalayout = "e-m:e-p270:32:32-p271:32:32-p272:64:64-i64:64-i128:128-f80:128-n8:16:32:64-S128"
target triple = "x86_64-pc-linux-gnu"

%class.MachOper = type { ptr }
%class.indIndexScaleOffsetNarrowOper = type { %class.MachOper, i32, i64 }
%class.Compile = type <{ %class.Phase, i32, %class.Options, [4 x i8], ptr, i32, [4 x i8], ptr, ptr, ptr, ptr, ptr, i32, i32, i32, [4 x i8], i64, i8, i8, [2 x i8], i32, i8, i8, i8, i8, i8, i8, i8, i8, i8, [3 x i8], i32, i8, [3 x i8], [30 x i32], i8, [3 x i8], i32, i8, i8, i8, i8, i8, i8, i8, i8, i8, i8, i8, i8, i8, [3 x i8], i32, i32, [4 x i8], %class.Arena, ptr, ptr, ptr, ptr, %class.CHeapStringHolder, ptr, %class.GrowableArray, %class.GrowableArray.0, %class.GrowableArray.3, %class.GrowableArray.0, %class.GrowableArray.0, %class.GrowableArray.0, %class.GrowableArray.6, %class.GrowableArray.9, ptr, i32, i32, %class.VectorSet, %class.Arena, %class.Arena, ptr, ptr, ptr, ptr, ptr, ptr, ptr, ptr, ptr, %class.Arena, ptr, ptr, %class.CloneMap, i64, ptr, ptr, ptr, i32, i32, [64 x %"struct.Compile::AliasCacheEntry"], ptr, ptr, ptr, ptr, %class.GrowableArray, %class.GrowableArray, %class.GrowableArray, %class.GrowableArray, i32, i32, i8, [7 x i8], ptr, ptr, i32, [4 x i8], ptr, ptr, ptr, i32, i32, ptr, ptr, %class.RegMask, ptr, ptr, i32, [4 x i8], ptr, %class.TimeInstant, i32, [4 x i8] }>
%class.Phase = type { i32, ptr }
%class.Options = type { i8, i8, i8, i8, i8, i8, i8, i8 }
%class.CHeapStringHolder = type { ptr }
%class.GrowableArray.3 = type { %class.GrowableArrayWithAllocator.4, %class.GrowableArrayMetadata }
%class.GrowableArrayWithAllocator.4 = type { %class.GrowableArrayView.5 }
%class.GrowableArrayView.5 = type { %class.GrowableArrayBase, ptr }
%class.GrowableArrayBase = type { i32, i32 }
%class.GrowableArrayMetadata = type { i64 }
%class.GrowableArray.0 = type { %class.GrowableArrayWithAllocator.1, %class.GrowableArrayMetadata }
%class.GrowableArrayWithAllocator.1 = type { %class.GrowableArrayView.2 }
%class.GrowableArrayView.2 = type { %class.GrowableArrayBase, ptr }
%class.GrowableArray.6 = type { %class.GrowableArrayWithAllocator.7, %class.GrowableArrayMetadata }
%class.GrowableArrayWithAllocator.7 = type { %class.GrowableArrayView.8 }
%class.GrowableArrayView.8 = type { %class.GrowableArrayBase, ptr }
%class.GrowableArray.9 = type { %class.GrowableArrayWithAllocator.10, %class.GrowableArrayMetadata }
%class.GrowableArrayWithAllocator.10 = type { %class.GrowableArrayView.11 }
%class.GrowableArrayView.11 = type { %class.GrowableArrayBase, ptr }
%class.VectorSet = type { i32, ptr, i32, ptr }
%class.Arena = type { i8, i8, i64, ptr, ptr, ptr, ptr }
%class.CloneMap = type <{ i8, [7 x i8], ptr, i32, [4 x i8] }>
%"struct.Compile::AliasCacheEntry" = type { ptr, i32 }
%class.GrowableArray = type { %class.GrowableArrayWithAllocator, %class.GrowableArrayMetadata }
%class.GrowableArrayWithAllocator = type { %class.GrowableArrayView }
%class.GrowableArrayView = type { %class.GrowableArrayBase, ptr }
%class.RegMask = type { %union.anon, i32, i32 }
%union.anon = type { [11 x i64] }
%class.TimeInstant = type { %class.CompositeCounterRepresentation }
%class.CompositeCounterRepresentation = type { %class.Representation }
%class.Representation = type { %class.PairRep }
%class.PairRep = type { i64, i64 }
%class.ciEnv = type <{ ptr, %class.Arena, ptr, ptr, ptr, ptr, %class.CHeapStringHolder, i8, [3 x i8], i32, i8, [3 x i8], i32, ptr, ptr, ptr, ptr, i32, [4 x i8], i64, i8, i8, i8, i8, i8, i8, i8, i8, ptr, ptr, ptr, ptr, ptr, ptr, ptr, ptr, ptr, [1025 x i8], [7 x i8] }>
%class.CompilerThread = type { %class.JavaThread, ptr, ptr, ptr, ptr, ptr, ptr, i8, ptr, %class.TimeStamp, ptr }
%class.JavaThread = type { %class.Thread, i8, %class.OopHandle, %class.OopHandle, %class.OopHandle, %class.OopHandle, %class.JavaFrameAnchor, ptr, %struct.JNIEnv_, ptr, ptr, ptr, ptr, ptr, ptr, ptr, ptr, %class.MemRegion, ptr, i8, ptr, ptr, ptr, i32, i32, %"struct.SafepointMechanism::ThreadData", ptr, ptr, i32, i32, i8, i8, i8, i8, i8, i8, i8, i32, i8, i32, i8, i8, i64, %union.anon.13, ptr, ptr, i64, i64, ptr, ptr, %class.StackOverflow, ptr, ptr, ptr, i32, i32, ptr, i32, i32, i32, ptr, ptr, i32, i64, i64, %class.StackWatermarks, %class.HandshakeState, ptr, i32, ptr, i32, i32, ptr, %class.Parker, ptr, ptr, %class.LockStack }
%class.Thread = type { %class.ThreadShadow.base, i64, [43 x i64], ptr, ptr, i32, ptr, i64, i64, %class.ThreadLocalAllocBuffer, i64, %class.ThreadHeapSampler, %class.ThreadStatisticalInfo, %class.JfrThreadLocal, ptr, ptr, ptr, ptr, ptr, ptr, i64, i32, i32, ptr, i32, i32, i32, i32, i8, ptr }
%class.ThreadShadow.base = type <{ ptr, ptr, ptr, i32 }>
%class.ThreadLocalAllocBuffer = type <{ ptr, ptr, ptr, ptr, ptr, i64, i64, i64, i64, i32, i32, i32, i32, i64, %class.AdaptiveWeightedAverage, [4 x i8] }>
%class.AdaptiveWeightedAverage = type { float, i32, i32, i8, float }
%class.ThreadHeapSampler = type { i64 }
%class.ThreadStatisticalInfo = type { i64, i64 }
%class.JfrThreadLocal = type <{ ptr, ptr, ptr, ptr, ptr, ptr, ptr, ptr, ptr, ptr, %class.RefCountHandle, i64, i64, i64, i64, i64, i64, i64, i64, i64, i64, i64, i32, i32, i32, i16, i8, i8, i8, i8, i8, [5 x i8] }>
%class.RefCountHandle = type { ptr }
%class.OopHandle = type { ptr }
%class.JavaFrameAnchor = type { ptr, ptr, ptr }
%struct.JNIEnv_ = type { ptr }
%class.MemRegion = type { ptr, i64 }
%"struct.SafepointMechanism::ThreadData" = type { i64, i64 }
%union.anon.13 = type { ptr }
%class.StackOverflow = type { i32, ptr, ptr, ptr, ptr, ptr, ptr }
%class.StackWatermarks = type { ptr }
%class.HandshakeState = type <{ ptr, %class.FilterQueue, %class.Monitor, ptr, i8, i8, i8, [5 x i8] }>
%class.FilterQueue = type { ptr }
%class.Monitor = type { %class.Mutex }
%class.Mutex = type { ptr, %class.PlatformMonitor, ptr }
%class.PlatformMonitor = type { %class.PlatformMutex, %union.pthread_cond_t }
%class.PlatformMutex = type { %union.pthread_mutex_t }
%union.pthread_mutex_t = type { %struct.__pthread_mutex_s }
%struct.__pthread_mutex_s = type { i32, i32, i32, i32, i32, i16, i16, %struct.__pthread_internal_list }
%struct.__pthread_internal_list = type { ptr, ptr }
%union.pthread_cond_t = type { %struct.__pthread_cond_s }
%struct.__pthread_cond_s = type { %union.__atomic_wide_counter, %union.__atomic_wide_counter, [2 x i32], [2 x i32], i32, i32, [2 x i32] }
%union.__atomic_wide_counter = type { i64 }
%class.Parker = type { %class.PlatformParker }
%class.PlatformParker = type { i32, i32, [1 x %union.pthread_mutex_t], [2 x %union.pthread_cond_t] }
%class.LockStack = type { i32, i64, [8 x ptr] }
%class.TimeStamp = type { i64 }

@_ZN6Thread12_thr_currentE = external thread_local global ptr, align 8
@_ZTV8MachOper = external unnamed_addr constant { [31 x ptr] }, align 8
@_ZTV29indIndexScaleOffsetNarrowOper = external unnamed_addr constant { [31 x ptr] }, align 8

; Function Attrs: mustprogress nounwind uwtable
define linkonce_odr hidden noundef ptr @_ZN6Thread15current_or_nullEv() #1 comdat align 2 {
  %1 = call align 8 ptr @llvm.threadlocal.address.p0(ptr align 8 @_ZN6Thread12_thr_currentE)
  %2 = load ptr, ptr %1, align 8
  ret ptr %2
}

; Function Attrs: mustprogress nounwind uwtable
define linkonce_odr hidden noundef ptr @_ZN10JavaThread4castEP6Thread(ptr noundef %0) #1 comdat align 2 {
  %2 = alloca ptr, align 8
  store ptr %0, ptr %2, align 8
  %3 = load ptr, ptr %2, align 8
  ret ptr %3
}

; Function Attrs: mustprogress nounwind uwtable
define linkonce_odr hidden noundef ptr @_ZN6Thread7currentEv() #1 comdat align 2 {
  %1 = alloca ptr, align 8
  %2 = call noundef ptr @_ZN6Thread15current_or_nullEv()
  store ptr %2, ptr %1, align 8
  %3 = load ptr, ptr %1, align 8
  ret ptr %3
}

; Function Attrs: mustprogress nounwind uwtable
define linkonce_odr hidden noundef ptr @_ZN14CompilerThread4castEP6Thread(ptr noundef %0) #1 comdat align 2 {
  %2 = alloca ptr, align 8
  store ptr %0, ptr %2, align 8
  %3 = load ptr, ptr %2, align 8
  ret ptr %3
}

; Function Attrs: mustprogress nounwind uwtable
define linkonce_odr hidden noundef ptr @_ZN10JavaThread7currentEv() #1 comdat align 2 {
  %1 = call noundef ptr @_ZN6Thread7currentEv()
  %2 = call noundef ptr @_ZN10JavaThread4castEP6Thread(ptr noundef %1)
  ret ptr %2
}

; Function Attrs: mustprogress nounwind uwtable
define linkonce_odr hidden noundef i64 @_Z13pointer_deltaPVKvS0_m(ptr noundef %0, ptr noundef %1, i64 noundef %2) #1 comdat {
  %4 = alloca ptr, align 8
  %5 = alloca ptr, align 8
  %6 = alloca i64, align 8
  store ptr %0, ptr %4, align 8
  store ptr %1, ptr %5, align 8
  store i64 %2, ptr %6, align 8
  %7 = load ptr, ptr %4, align 8
  %8 = ptrtoint ptr %7 to i64
  %9 = load ptr, ptr %5, align 8
  %10 = ptrtoint ptr %9 to i64
  %11 = sub i64 %8, %10
  %12 = load i64, ptr %6, align 8
  %13 = udiv i64 %11, %12
  ret i64 %13
}

; Function Attrs: mustprogress nounwind uwtable
define linkonce_odr hidden noundef ptr @_ZN14CompilerThread3envEv(ptr noundef nonnull align 8 dereferenceable(1880) %0) #1 comdat align 2 {
  %2 = alloca ptr, align 8
  store ptr %0, ptr %2, align 8
  %3 = load ptr, ptr %2, align 8
  %4 = getelementptr inbounds %class.CompilerThread, ptr %3, i32 0, i32 2
  %5 = load ptr, ptr %4, align 8
  ret ptr %5
}

; Function Attrs: mustprogress nounwind uwtable
define linkonce_odr hidden noundef ptr @_ZN14CompilerThread7currentEv() #1 comdat align 2 {
  %1 = call noundef ptr @_ZN10JavaThread7currentEv()
  %2 = call noundef ptr @_ZN14CompilerThread4castEP6Thread(ptr noundef %1)
  ret ptr %2
}

; Function Attrs: mustprogress nounwind uwtable
define linkonce_odr hidden noundef ptr @_ZN5Arena16internal_amallocEmN17AllocFailStrategy13AllocFailEnumE(ptr noundef nonnull align 8 dereferenceable(48) %0, i64 noundef %1, i32 noundef %2) #1 comdat align 2 {
  %4 = alloca ptr, align 8
  %5 = alloca ptr, align 8
  %6 = alloca i64, align 8
  %7 = alloca i32, align 4
  %8 = alloca ptr, align 8
  store ptr %0, ptr %5, align 8
  store i64 %1, ptr %6, align 8
  store i32 %2, ptr %7, align 4
  %9 = load ptr, ptr %5, align 8
  %10 = getelementptr inbounds %class.Arena, ptr %9, i32 0, i32 6
  %11 = load ptr, ptr %10, align 8
  %12 = getelementptr inbounds %class.Arena, ptr %9, i32 0, i32 5
  %13 = load ptr, ptr %12, align 8
  %14 = call noundef i64 @_Z13pointer_deltaPVKvS0_m(ptr noundef %11, ptr noundef %13, i64 noundef 1)
  %15 = load i64, ptr %6, align 8
  %16 = icmp uge i64 %14, %15
  br i1 %16, label %17, label %25

17:                                               ; preds = %3
  %18 = getelementptr inbounds %class.Arena, ptr %9, i32 0, i32 5
  %19 = load ptr, ptr %18, align 8
  store ptr %19, ptr %8, align 8
  %20 = load i64, ptr %6, align 8
  %21 = getelementptr inbounds %class.Arena, ptr %9, i32 0, i32 5
  %22 = load ptr, ptr %21, align 8
  %23 = getelementptr inbounds i8, ptr %22, i64 %20
  store ptr %23, ptr %21, align 8
  %24 = load ptr, ptr %8, align 8
  store ptr %24, ptr %4, align 8
  br label %29

25:                                               ; preds = %3
  %26 = load i64, ptr %6, align 8
  %27 = load i32, ptr %7, align 4
  %28 = call noundef ptr @_ZN5Arena4growEmN17AllocFailStrategy13AllocFailEnumE(ptr noundef nonnull align 8 dereferenceable(48) %9, i64 noundef %26, i32 noundef %27)
  store ptr %28, ptr %4, align 8
  br label %29

29:                                               ; preds = %25, %17
  %30 = load ptr, ptr %4, align 8
  ret ptr %30
}

; Function Attrs: mustprogress nounwind uwtable
define linkonce_odr hidden noundef ptr @_ZNK5ciEnv13compiler_dataEv(ptr noundef nonnull align 8 dereferenceable(1265) %0) #1 comdat align 2 {
  %2 = alloca ptr, align 8
  store ptr %0, ptr %2, align 8
  %3 = load ptr, ptr %2, align 8
  %4 = getelementptr inbounds %class.ciEnv, ptr %3, i32 0, i32 15
  %5 = load ptr, ptr %4, align 8
  ret ptr %5
}

; Function Attrs: mustprogress nounwind uwtable
define linkonce_odr hidden noundef ptr @_ZN5ciEnv7currentEv() #1 comdat align 2 {
  %1 = call noundef ptr @_ZN14CompilerThread7currentEv()
  %2 = call noundef ptr @_ZN14CompilerThread3envEv(ptr noundef nonnull align 8 dereferenceable(1880) %1)
  ret ptr %2
}

; Function Attrs: mustprogress nounwind uwtable
define linkonce_odr hidden void @_ZN8MachOperC2Ev(ptr noundef nonnull align 8 dereferenceable(8) %0) unnamed_addr #1 comdat align 2 {
  %2 = alloca ptr, align 8
  store ptr %0, ptr %2, align 8
  %3 = load ptr, ptr %2, align 8
  store ptr getelementptr inbounds inrange(-16, 232) ({ [31 x ptr] }, ptr @_ZTV8MachOper, i32 0, i32 0, i32 2), ptr %3, align 8
  ret void
}

; Function Attrs: mustprogress nounwind uwtable
define linkonce_odr hidden noundef ptr @_ZN5Arena12AmallocWordsEmN17AllocFailStrategy13AllocFailEnumE(ptr noundef nonnull align 8 dereferenceable(48) %0, i64 noundef %1, i32 noundef %2) #1 comdat align 2 {
  %4 = alloca ptr, align 8
  %5 = alloca i64, align 8
  %6 = alloca i32, align 4
  store ptr %0, ptr %4, align 8
  store i64 %1, ptr %5, align 8
  store i32 %2, ptr %6, align 4
  %7 = load ptr, ptr %4, align 8
  %8 = load i64, ptr %5, align 8
  %9 = load i32, ptr %6, align 4
  %10 = call noundef ptr @_ZN5Arena16internal_amallocEmN17AllocFailStrategy13AllocFailEnumE(ptr noundef nonnull align 8 dereferenceable(48) %7, i64 noundef %8, i32 noundef %9)
  ret ptr %10
}

; Function Attrs: mustprogress nounwind uwtable
define linkonce_odr hidden noundef ptr @_ZN7Compile10node_arenaEv(ptr noundef nonnull align 8 dereferenceable(2316) %0) #1 comdat align 2 {
  %2 = alloca ptr, align 8
  store ptr %0, ptr %2, align 8
  %3 = load ptr, ptr %2, align 8
  %4 = getelementptr inbounds %class.Compile, ptr %3, i32 0, i32 76
  %5 = load ptr, ptr %4, align 8
  ret ptr %5
}

; Function Attrs: mustprogress nounwind uwtable
define linkonce_odr hidden noundef ptr @_ZN7Compile7currentEv() #1 comdat align 2 {
  %1 = call noundef ptr @_ZN5ciEnv7currentEv()
  %2 = call noundef ptr @_ZNK5ciEnv13compiler_dataEv(ptr noundef nonnull align 8 dereferenceable(1265) %1)
  ret ptr %2
}

; Function Attrs: mustprogress nounwind uwtable
define linkonce_odr hidden void @_ZN29indIndexScaleOffsetNarrowOperC2Eil(ptr noundef nonnull align 8 dereferenceable(24) %0, i32 noundef %1, i64 noundef %2) unnamed_addr #1 comdat align 2 {
  %4 = alloca ptr, align 8
  %5 = alloca i32, align 4
  %6 = alloca i64, align 8
  store ptr %0, ptr %4, align 8
  store i32 %1, ptr %5, align 4
  store i64 %2, ptr %6, align 8
  %7 = load ptr, ptr %4, align 8
  call void @_ZN8MachOperC2Ev(ptr noundef nonnull align 8 dereferenceable(8) %7) #5
  store ptr getelementptr inbounds inrange(-16, 232) ({ [31 x ptr] }, ptr @_ZTV29indIndexScaleOffsetNarrowOper, i32 0, i32 0, i32 2), ptr %7, align 8
  %8 = getelementptr inbounds %class.indIndexScaleOffsetNarrowOper, ptr %7, i32 0, i32 1
  %9 = load i32, ptr %5, align 4
  store i32 %9, ptr %8, align 8
  %10 = getelementptr inbounds %class.indIndexScaleOffsetNarrowOper, ptr %7, i32 0, i32 2
  %11 = load i64, ptr %6, align 8
  store i64 %11, ptr %10, align 8
  ret void
}

; Function Attrs: mustprogress nounwind uwtable
define linkonce_odr hidden noundef ptr @_ZN8MachOpernwEm(i64 noundef %0) #1 comdat align 2 {
  %2 = alloca i64, align 8
  %3 = alloca ptr, align 8
  store i64 %0, ptr %2, align 8
  %4 = call noundef ptr @_ZN7Compile7currentEv()
  store ptr %4, ptr %3, align 8
  %5 = load ptr, ptr %3, align 8
  %6 = call noundef ptr @_ZN7Compile10node_arenaEv(ptr noundef nonnull align 8 dereferenceable(2316) %5)
  %7 = load i64, ptr %2, align 8
  %8 = call noundef ptr @_ZN5Arena12AmallocWordsEmN17AllocFailStrategy13AllocFailEnumE(ptr noundef nonnull align 8 dereferenceable(48) %6, i64 noundef %7, i32 noundef 0)
  ret ptr %8
}

; Function Attrs: mustprogress nounwind uwtable
define hidden noundef ptr @_ZNK29indIndexScaleOffsetNarrowOper5cloneEv(ptr noundef nonnull align 8 dereferenceable(24) %0) unnamed_addr #1 align 2 {
  %2 = alloca ptr, align 8
  store ptr %0, ptr %2, align 8
  %3 = load ptr, ptr %2, align 8
  %4 = call noundef ptr @_ZN8MachOpernwEm(i64 noundef 24) #5
  %5 = icmp eq ptr %4, null
  br i1 %5, label %11, label %6

6:                                                ; preds = %1
  %7 = getelementptr inbounds %class.indIndexScaleOffsetNarrowOper, ptr %3, i32 0, i32 1
  %8 = load i32, ptr %7, align 8
  %9 = getelementptr inbounds %class.indIndexScaleOffsetNarrowOper, ptr %3, i32 0, i32 2
  %10 = load i64, ptr %9, align 8
  call void @_ZN29indIndexScaleOffsetNarrowOperC2Eil(ptr noundef nonnull align 8 dereferenceable(24) %4, i32 noundef %8, i64 noundef %10)
  br label %11

11:                                               ; preds = %6, %1
  %12 = phi ptr [ %4, %6 ], [ null, %1 ]
  ret ptr %12
}